target datalayout = "e-m:e-p270:32:32-p271:32:32-p272:64:64-i64:64-i128:128-f80:128-n8:16:32:64-S128"
target triple = "x86_64-pc-linux-gnu"

; Function Attrs: nounwind uwtable
define ptr @wc_strtok(ptr noundef %0, ptr noundef %1, ptr noundef %2) #0 {
  %4 = alloca ptr, align 8
  %5 = alloca ptr, align 8
  %6 = alloca ptr, align 8
  %7 = alloca ptr, align 8
  %8 = alloca ptr, align 8
  %9 = alloca i32, align 4
  %10 = alloca i32, align 4
  %11 = alloca i32, align 4
  store ptr %0, ptr %5, align 8, !tbaa !7
  store ptr %1, ptr %6, align 8, !tbaa !7
  store ptr %2, ptr %7, align 8, !tbaa !10
  call void @llvm.lifetime.start.p0(i64 8, ptr %8) #7
  call void @llvm.lifetime.start.p0(i64 4, ptr %9) #7
  call void @llvm.lifetime.start.p0(i64 4, ptr %10) #7
  %12 = load ptr, ptr %5, align 8, !tbaa !7
  %13 = icmp eq ptr %12, null
  br i1 %13, label %14, label %20

14:                                               ; preds = %3
  %15 = load ptr, ptr %7, align 8, !tbaa !10
  %16 = icmp ne ptr %15, null
  br i1 %16, label %17, label %20

17:                                               ; preds = %14
  %18 = load ptr, ptr %7, align 8, !tbaa !10
  %19 = load ptr, ptr %18, align 8, !tbaa !7
  store ptr %19, ptr %5, align 8, !tbaa !7
  br label %20

20:                                               ; preds = %17, %14, %3
  %21 = load ptr, ptr %5, align 8, !tbaa !7
  %22 = icmp eq ptr %21, null
  br i1 %22, label %28, label %23

23:                                               ; preds = %20
  %24 = load ptr, ptr %5, align 8, !tbaa !7
  %25 = load i8, ptr %24, align 1, !tbaa !29
  %26 = sext i8 %25 to i32
  %27 = icmp eq i32 %26, 0
  br i1 %27, label %28, label %29

28:                                               ; preds = %23, %20
  store ptr null, ptr %4, align 8
  store i32 1, ptr %11, align 4
  br label %160

29:                                               ; preds = %23
  store i32 0, ptr %9, align 4, !tbaa !3
  br label %30

30:                                               ; preds = %73, %29
  %31 = load ptr, ptr %5, align 8, !tbaa !7
  %32 = load i32, ptr %9, align 4, !tbaa !3
  %33 = sext i32 %32 to i64
  %34 = getelementptr inbounds i8, ptr %31, i64 %33
  %35 = load i8, ptr %34, align 1, !tbaa !29
  %36 = icmp ne i8 %35, 0
  br i1 %36, label %37, label %76

37:                                               ; preds = %30
  store i32 0, ptr %10, align 4, !tbaa !3
  br label %38

38:                                               ; preds = %61, %37
  %39 = load ptr, ptr %6, align 8, !tbaa !7
  %40 = load i32, ptr %10, align 4, !tbaa !3
  %41 = sext i32 %40 to i64
  %42 = getelementptr inbounds i8, ptr %39, i64 %41
  %43 = load i8, ptr %42, align 1, !tbaa !29
  %44 = icmp ne i8 %43, 0
  br i1 %44, label %45, label %64

45:                                               ; preds = %38
  %46 = load ptr, ptr %6, align 8, !tbaa !7
  %47 = load i32, ptr %10, align 4, !tbaa !3
  %48 = sext i32 %47 to i64
  %49 = getelementptr inbounds i8, ptr %46, i64 %48
  %50 = load i8, ptr %49, align 1, !tbaa !29
  %51 = sext i8 %50 to i32
  %52 = load ptr, ptr %5, align 8, !tbaa !7
  %53 = load i32, ptr %9, align 4, !tbaa !3
  %54 = sext i32 %53 to i64
  %55 = getelementptr inbounds i8, ptr %52, i64 %54
  %56 = load i8, ptr %55, align 1, !tbaa !29
  %57 = sext i8 %56 to i32
  %58 = icmp eq i32 %51, %57
  br i1 %58, label %59, label %60

59:                                               ; preds = %45
  br label %64

60:                                               ; preds = %45
  br label %61

61:                                               ; preds = %60
  %62 = load i32, ptr %10, align 4, !tbaa !3
  %63 = add nsw i32 %62, 1
  store i32 %63, ptr %10, align 4, !tbaa !3
  br label %38, !llvm.loop !33

64:                                               ; preds = %59, %38
  %65 = load ptr, ptr %6, align 8, !tbaa !7
  %66 = load i32, ptr %10, align 4, !tbaa !3
  %67 = sext i32 %66 to i64
  %68 = getelementptr inbounds i8, ptr %65, i64 %67
  %69 = load i8, ptr %68, align 1, !tbaa !29
  %70 = icmp ne i8 %69, 0
  br i1 %70, label %72, label %71

71:                                               ; preds = %64
  br label %76

72:                                               ; preds = %64
  br label %73

73:                                               ; preds = %72
  %74 = load i32, ptr %9, align 4, !tbaa !3
  %75 = add nsw i32 %74, 1
  store i32 %75, ptr %9, align 4, !tbaa !3
  br label %30, !llvm.loop !34

76:                                               ; preds = %71, %30
  %77 = load i32, ptr %9, align 4, !tbaa !3
  %78 = load ptr, ptr %5, align 8, !tbaa !7
  %79 = sext i32 %77 to i64
  %80 = getelementptr inbounds i8, ptr %78, i64 %79
  store ptr %80, ptr %5, align 8, !tbaa !7
  %81 = load ptr, ptr %5, align 8, !tbaa !7
  %82 = load i8, ptr %81, align 1, !tbaa !29
  %83 = sext i8 %82 to i32
  %84 = icmp eq i32 %83, 0
  br i1 %84, label %85, label %86

85:                                               ; preds = %76
  store ptr null, ptr %4, align 8
  store i32 1, ptr %11, align 4
  br label %160

86:                                               ; preds = %76
  %87 = load ptr, ptr %5, align 8, !tbaa !7
  store ptr %87, ptr %8, align 8, !tbaa !7
  store i32 0, ptr %9, align 4, !tbaa !3
  br label %88

88:                                               ; preds = %138, %86
  %89 = load ptr, ptr %5, align 8, !tbaa !7
  %90 = load i32, ptr %9, align 4, !tbaa !3
  %91 = sext i32 %90 to i64
  %92 = getelementptr inbounds i8, ptr %89, i64 %91
  %93 = load i8, ptr %92, align 1, !tbaa !29
  %94 = icmp ne i8 %93, 0
  br i1 %94, label %95, label %141

95:                                               ; preds = %88
  store i32 0, ptr %10, align 4, !tbaa !3
  br label %96

96:                                               ; preds = %119, %95
  %97 = load ptr, ptr %6, align 8, !tbaa !7
  %98 = load i32, ptr %10, align 4, !tbaa !3
  %99 = sext i32 %98 to i64
  %100 = getelementptr inbounds i8, ptr %97, i64 %99
  %101 = load i8, ptr %100, align 1, !tbaa !29
  %102 = icmp ne i8 %101, 0
  br i1 %102, label %103, label %122

103:                                              ; preds = %96
  %104 = load ptr, ptr %6, align 8, !tbaa !7
  %105 = load i32, ptr %10, align 4, !tbaa !3
  %106 = sext i32 %105 to i64
  %107 = getelementptr inbounds i8, ptr %104, i64 %106
  %108 = load i8, ptr %107, align 1, !tbaa !29
  %109 = sext i8 %108 to i32
  %110 = load ptr, ptr %5, align 8, !tbaa !7
  %111 = load i32, ptr %9, align 4, !tbaa !3
  %112 = sext i32 %111 to i64
  %113 = getelementptr inbounds i8, ptr %110, i64 %112
  %114 = load i8, ptr %113, align 1, !tbaa !29
  %115 = sext i8 %114 to i32
  %116 = icmp eq i32 %109, %115
  br i1 %116, label %117, label %118

117:                                              ; preds = %103
  br label %122

118:                                              ; preds = %103
  br label %119

119:                                              ; preds = %118
  %120 = load i32, ptr %10, align 4, !tbaa !3
  %121 = add nsw i32 %120, 1
  store i32 %121, ptr %10, align 4, !tbaa !3
  br label %96, !llvm.loop !35

122:                                              ; preds = %117, %96
  %123 = load ptr, ptr %6, align 8, !tbaa !7
  %124 = load i32, ptr %10, align 4, !tbaa !3
  %125 = sext i32 %124 to i64
  %126 = getelementptr inbounds i8, ptr %123, i64 %125
  %127 = load i8, ptr %126, align 1, !tbaa !29
  %128 = sext i8 %127 to i32
  %129 = load ptr, ptr %5, align 8, !tbaa !7
  %130 = load i32, ptr %9, align 4, !tbaa !3
  %131 = sext i32 %130 to i64
  %132 = getelementptr inbounds i8, ptr %129, i64 %131
  %133 = load i8, ptr %132, align 1, !tbaa !29
  %134 = sext i8 %133 to i32
  %135 = icmp eq i32 %128, %134
  br i1 %135, label %136, label %137

136:                                              ; preds = %122
  br label %141

137:                                              ; preds = %122
  br label %138

138:                                              ; preds = %137
  %139 = load i32, ptr %9, align 4, !tbaa !3
  %140 = add nsw i32 %139, 1
  store i32 %140, ptr %9, align 4, !tbaa !3
  br label %88, !llvm.loop !36

141:                                              ; preds = %136, %88
  %142 = load i32, ptr %9, align 4, !tbaa !3
  %143 = load ptr, ptr %5, align 8, !tbaa !7
  %144 = sext i32 %142 to i64
  %145 = getelementptr inbounds i8, ptr %143, i64 %144
  store ptr %145, ptr %5, align 8, !tbaa !7
  %146 = load ptr, ptr %5, align 8, !tbaa !7
  %147 = load i8, ptr %146, align 1, !tbaa !29
  %148 = icmp ne i8 %147, 0
  br i1 %148, label %149, label %152

149:                                              ; preds = %141
  %150 = load ptr, ptr %5, align 8, !tbaa !7
  %151 = getelementptr inbounds nuw i8, ptr %150, i32 1
  store ptr %151, ptr %5, align 8, !tbaa !7
  store i8 0, ptr %150, align 1, !tbaa !29
  br label %152

152:                                              ; preds = %149, %141
  %153 = load ptr, ptr %7, align 8, !tbaa !10
  %154 = icmp ne ptr %153, null
  br i1 %154, label %155, label %158

155:                                              ; preds = %152
  %156 = load ptr, ptr %5, align 8, !tbaa !7
  %157 = load ptr, ptr %7, align 8, !tbaa !10
  store ptr %156, ptr %157, align 8, !tbaa !7
  br label %158

158:                                              ; preds = %155, %152
  %159 = load ptr, ptr %8, align 8, !tbaa !7
  store ptr %159, ptr %4, align 8
  store i32 1, ptr %11, align 4
  br label %160

160:                                              ; preds = %158, %85, %28
  call void @llvm.lifetime.end.p0(i64 4, ptr %10) #7
  call void @llvm.lifetime.end.p0(i64 4, ptr %9) #7
  call void @llvm.lifetime.end.p0(i64 8, ptr %8) #7
  %161 = load ptr, ptr %4, align 8
  ret ptr %161
}