; Function Attrs: nofree norecurse nosync nounwind memory(readwrite, inaccessiblemem: none) uwtable
define ptr @wc_strtok(ptr noundef %0, ptr noundef readonly captures(none) %1, ptr noundef captures(address_is_null) %2) local_unnamed_addr #9 {
  %4 = icmp eq ptr %0, null
  %5 = icmp ne ptr %2, null
  %or.cond = and i1 %4, %5
  br i1 %or.cond, label %6, label %8

6:                                                ; preds = %3
  %7 = load ptr, ptr %2, align 8, !tbaa !7
  br label %8

8:                                                ; preds = %6, %3
  %.047 = phi ptr [ %7, %6 ], [ %0, %3 ]
  %9 = icmp eq ptr %.047, null
  br i1 %9, label %.thread58, label %10

10:                                               ; preds = %8
  %11 = load i8, ptr %.047, align 1, !tbaa !20
  %12 = icmp eq i8 %11, 0
  br i1 %12, label %.thread58, label %.preheader62.lr.ph

.preheader62.lr.ph:                               ; preds = %10
  %13 = load i8, ptr %1, align 1, !tbaa !20
  %.not5368 = icmp eq i8 %13, 0
  br i1 %.not5368, label %.preheader.preheader, label %.preheader62

.preheader62:                                     ; preds = %.preheader62.lr.ph, %23
  %indvars.iv84 = phi i64 [ %indvars.iv.next85, %23 ], [ 0, %.preheader62.lr.ph ]
  %14 = phi i8 [ %25, %23 ], [ %11, %.preheader62.lr.ph ]
  br label %20

15:                                               ; preds = %20
  %indvars.iv.next = add nuw nsw i64 %indvars.iv, 1
  %16 = getelementptr inbounds nuw i8, ptr %1, i64 %indvars.iv.next
  %17 = load i8, ptr %16, align 1, !tbaa !20
  %.not53 = icmp eq i8 %17, 0
  br i1 %.not53, label %..preheader61_crit_edge, label %20, !llvm.loop !21

..preheader61_crit_edge:                          ; preds = %15
  %18 = getelementptr inbounds nuw i8, ptr %.047, i64 %indvars.iv84
  br label %.preheader.preheader

.preheader.preheader:                             ; preds = %..preheader61_crit_edge, %.preheader62.lr.ph
  %19 = phi i8 [ %14, %..preheader61_crit_edge ], [ %11, %.preheader62.lr.ph ]
  %.lcssa67 = phi ptr [ %18, %..preheader61_crit_edge ], [ %.047, %.preheader62.lr.ph ]
  br label %.preheader

20:                                               ; preds = %.preheader62, %15
  %indvars.iv = phi i64 [ 0, %.preheader62 ], [ %indvars.iv.next, %15 ]
  %21 = phi i8 [ %13, %.preheader62 ], [ %17, %15 ]
  %22 = icmp eq i8 %21, %14
  br i1 %22, label %23, label %15

23:                                               ; preds = %20
  %indvars.iv.next85 = add nuw nsw i64 %indvars.iv84, 1
  %24 = getelementptr inbounds nuw i8, ptr %.047, i64 %indvars.iv.next85
  %25 = load i8, ptr %24, align 1, !tbaa !20
  %.not = icmp eq i8 %25, 0
  br i1 %.not, label %.thread58, label %.preheader62, !llvm.loop !23

26:                                               ; preds = %34
  %indvars.iv.next90 = add nuw nsw i64 %indvars.iv89, 1
  %27 = getelementptr inbounds nuw i8, ptr %.lcssa67, i64 %indvars.iv.next90
  %28 = load i8, ptr %27, align 1, !tbaa !20
  %.not55 = icmp eq i8 %28, 0
  br i1 %.not55, label %.thread59.loopexit, label %.preheader, !llvm.loop !24

.preheader:                                       ; preds = %.preheader.preheader, %26
  %indvars.iv89 = phi i64 [ 0, %.preheader.preheader ], [ %indvars.iv.next90, %26 ]
  %29 = phi i8 [ %19, %.preheader.preheader ], [ %28, %26 ]
  br label %30

30:                                               ; preds = %30, %.preheader
  %indvars.iv86 = phi i64 [ %indvars.iv.next87, %30 ], [ 0, %.preheader ]
  %31 = getelementptr inbounds nuw i8, ptr %1, i64 %indvars.iv86
  %32 = load i8, ptr %31, align 1, !tbaa !20
  %.not56 = icmp eq i8 %32, 0
  %33 = icmp eq i8 %32, %29
  %or.cond60 = or i1 %.not56, %33
  %indvars.iv.next87 = add nuw nsw i64 %indvars.iv86, 1
  br i1 %or.cond60, label %34, label %30, !llvm.loop !25

34:                                               ; preds = %30
  br i1 %33, label %35, label %26

35:                                               ; preds = %34
  %36 = getelementptr inbounds nuw i8, ptr %.lcssa67, i64 %indvars.iv89
  %37 = getelementptr inbounds nuw i8, ptr %36, i64 1
  store i8 0, ptr %36, align 1, !tbaa !20
  br label %.thread59

.thread59.loopexit:                               ; preds = %26
  %38 = getelementptr inbounds nuw i8, ptr %.lcssa67, i64 %indvars.iv.next90
  br label %.thread59

.thread59:                                        ; preds = %.thread59.loopexit, %35
  %.148 = phi ptr [ %37, %35 ], [ %38, %.thread59.loopexit ]
  br i1 %5, label %39, label %.thread58

39:                                               ; preds = %.thread59
  store ptr %.148, ptr %2, align 8, !tbaa !7
  br label %.thread58

.thread58:                                        ; preds = %23, %.thread59, %39, %8, %10
  %.046 = phi ptr [ null, %10 ], [ null, %8 ], [ %.lcssa67, %39 ], [ %.lcssa67, %.thread59 ], [ null, %23 ]
  ret ptr %.046
}